target datalayout = "e-m:e-p270:32:32-p271:32:32-p272:64:64-i64:64-i128:128-f80:128-n8:16:32:64-S128"
target triple = "x86_64-pc-linux-gnu"

%class.VOptionBool = type { i8 }
%class.VTimescale = type { i8 }
%struct.V3ParseBisonYYSType = type { ptr, ptr, i32, %class.VBaseOverride, %union.anon }
%class.VBaseOverride = type { i8 }
%union.anon = type { ptr }
%"class.std::deque.19" = type { %"class.std::_Deque_base.20" }
%"class.std::_Deque_base.20" = type { %"struct.std::_Deque_base<std::__cxx11::basic_string<char>, std::allocator<std::__cxx11::basic_string<char>>>::_Deque_impl" }
%"struct.std::_Deque_base<std::__cxx11::basic_string<char>, std::allocator<std::__cxx11::basic_string<char>>>::_Deque_impl" = type { %"struct.std::_Deque_base<std::__cxx11::basic_string<char>, std::allocator<std::__cxx11::basic_string<char>>>::_Deque_impl_data" }
%"struct.std::_Deque_base<std::__cxx11::basic_string<char>, std::allocator<std::__cxx11::basic_string<char>>>::_Deque_impl_data" = type { ptr, i64, %"struct.std::_Deque_iterator.24", %"struct.std::_Deque_iterator.24" }
%"struct.std::_Deque_iterator.24" = type { ptr, ptr, ptr, ptr }
%class.FileLine = type { i16, i16, i32, i32, i32, i32, i32, ptr, ptr }
%"struct.std::_Deque_iterator.6" = type { ptr, ptr, ptr, ptr }
%"struct.std::_Deque_iterator.12" = type { ptr, ptr, ptr, ptr }
%class.V3ParseImp = type <{ ptr, ptr, ptr, ptr, ptr, ptr, i8, [3 x i8], i32, i32, %class.VOptionBool, [3 x i8], i32, i8, [3 x i8], %struct.V3ParseBisonYYSType, %"class.std::deque", %"class.std::deque.1", %"class.std::deque.7", %"class.std::deque.13", %"class.std::deque.19", i64, ptr, %class.VTimescale, [7 x i8] }>
%"class.std::deque" = type { %"class.std::_Deque_base" }
%"class.std::_Deque_base" = type { %"struct.std::_Deque_base<V3ParseBisonYYSType, std::allocator<V3ParseBisonYYSType>>::_Deque_impl" }
%"struct.std::_Deque_base<V3ParseBisonYYSType, std::allocator<V3ParseBisonYYSType>>::_Deque_impl" = type { %"struct.std::_Deque_base<V3ParseBisonYYSType, std::allocator<V3ParseBisonYYSType>>::_Deque_impl_data" }
%"struct.std::_Deque_base<V3ParseBisonYYSType, std::allocator<V3ParseBisonYYSType>>::_Deque_impl_data" = type { ptr, i64, %"struct.std::_Deque_iterator", %"struct.std::_Deque_iterator" }
%"struct.std::_Deque_iterator" = type { ptr, ptr, ptr, ptr }
%"class.std::deque.1" = type { %"class.std::_Deque_base.2" }
%"class.std::_Deque_base.2" = type { %"struct.std::_Deque_base<std::__cxx11::basic_string<char> *, std::allocator<std::__cxx11::basic_string<char> *>>::_Deque_impl" }
%"struct.std::_Deque_base<std::__cxx11::basic_string<char> *, std::allocator<std::__cxx11::basic_string<char> *>>::_Deque_impl" = type { %"struct.std::_Deque_base<std::__cxx11::basic_string<char> *, std::allocator<std::__cxx11::basic_string<char> *>>::_Deque_impl_data" }
%"struct.std::_Deque_base<std::__cxx11::basic_string<char> *, std::allocator<std::__cxx11::basic_string<char> *>>::_Deque_impl_data" = type { ptr, i64, %"struct.std::_Deque_iterator.6", %"struct.std::_Deque_iterator.6" }
%"class.std::deque.7" = type { %"class.std::_Deque_base.8" }
%"class.std::_Deque_base.8" = type { %"struct.std::_Deque_base<V3Number *, std::allocator<V3Number *>>::_Deque_impl" }
%"struct.std::_Deque_base<V3Number *, std::allocator<V3Number *>>::_Deque_impl" = type { %"struct.std::_Deque_base<V3Number *, std::allocator<V3Number *>>::_Deque_impl_data" }
%"struct.std::_Deque_base<V3Number *, std::allocator<V3Number *>>::_Deque_impl_data" = type { ptr, i64, %"struct.std::_Deque_iterator.12", %"struct.std::_Deque_iterator.12" }
%"class.std::deque.13" = type { %"class.std::_Deque_base.14" }
%"class.std::_Deque_base.14" = type { %"struct.std::_Deque_base<FileLine, std::allocator<FileLine>>::_Deque_impl" }
%"struct.std::_Deque_base<FileLine, std::allocator<FileLine>>::_Deque_impl" = type { %"struct.std::_Deque_base<FileLine, std::allocator<FileLine>>::_Deque_impl_data" }
%"struct.std::_Deque_base<FileLine, std::allocator<FileLine>>::_Deque_impl_data" = type { ptr, i64, %"struct.std::_Deque_iterator.18", %"struct.std::_Deque_iterator.18" }
%"struct.std::_Deque_iterator.18" = type { ptr, ptr, ptr, ptr }
%class.VFileContent = type { i32, %"struct.std::atomic.183", %"class.std::deque.19" }
%"struct.std::atomic.183" = type { %"struct.std::__atomic_base.184" }
%"struct.std::__atomic_base.184" = type { i64 }

; Function Attrs: mustprogress nounwind uwtable
define linkonce_odr dso_local noundef i64 @_ZNSt13__atomic_baseImEppEv(ptr noundef nonnull align 8 dereferenceable(8) %0) #4 comdat align 2 {
  %2 = alloca ptr, align 8
  %3 = alloca i64, align 8
  %4 = alloca i64, align 8
  store ptr %0, ptr %2, align 8, !tbaa !770
  %5 = load ptr, ptr %2, align 8
  %6 = getelementptr inbounds nuw %"struct.std::__atomic_base.184", ptr %5, i32 0, i32 0
  store i64 1, ptr %3, align 8, !tbaa !221
  %7 = load i64, ptr %3, align 8
  %8 = atomicrmw add ptr %6, i64 %7 seq_cst, align 8
  %9 = add i64 %8, %7
  store i64 %9, ptr %4, align 8
  %10 = load i64, ptr %4, align 8, !tbaa !221
  ret i64 %10
}

; Function Attrs: mustprogress nounwind uwtable
define linkonce_odr dso_local void @_ZN12VFileContent6refIncEv(ptr noundef nonnull align 8 dereferenceable(96) %0) #4 comdat align 2 {
  %2 = alloca ptr, align 8
  store ptr %0, ptr %2, align 8, !tbaa !769
  %3 = load ptr, ptr %2, align 8
  %4 = getelementptr inbounds nuw %class.VFileContent, ptr %3, i32 0, i32 1
  %5 = call noundef i64 @_ZNSt13__atomic_baseImEppEv(ptr noundef nonnull align 8 dereferenceable(8) %4) #3
  ret void
}

; Function Attrs: mustprogress nounwind uwtable
define linkonce_odr dso_local void @_ZN8FileLineC2ERKS_(ptr noundef nonnull align 8 dereferenceable(40) %0, ptr noundef nonnull align 8 dereferenceable(40) %1) unnamed_addr #4 comdat align 2 {
  %3 = alloca ptr, align 8
  %4 = alloca ptr, align 8
  store ptr %0, ptr %3, align 8, !tbaa !100
  store ptr %1, ptr %4, align 8, !tbaa !100
  %5 = load ptr, ptr %3, align 8
  %6 = getelementptr inbounds nuw %class.FileLine, ptr %5, i32 0, i32 0
  %7 = load ptr, ptr %4, align 8, !tbaa !100
  %8 = getelementptr inbounds nuw %class.FileLine, ptr %7, i32 0, i32 0
  %9 = load i16, ptr %8, align 8, !tbaa !184
  store i16 %9, ptr %6, align 8, !tbaa !184
  %10 = getelementptr inbounds nuw %class.FileLine, ptr %5, i32 0, i32 1
  %11 = load ptr, ptr %4, align 8, !tbaa !100
  %12 = getelementptr inbounds nuw %class.FileLine, ptr %11, i32 0, i32 1
  %13 = load i16, ptr %12, align 2, !tbaa !188
  store i16 %13, ptr %10, align 2, !tbaa !188
  %14 = getelementptr inbounds nuw %class.FileLine, ptr %5, i32 0, i32 2
  %15 = load ptr, ptr %4, align 8, !tbaa !100
  %16 = getelementptr inbounds nuw %class.FileLine, ptr %15, i32 0, i32 2
  %17 = load i32, ptr %16, align 4
  %18 = and i32 %17, 1
  %19 = trunc i32 %18 to i1
  %20 = zext i1 %19 to i32
  %21 = load i32, ptr %14, align 4
  %22 = and i32 %21, -2
  %23 = or i32 %22, %20
  store i32 %23, ptr %14, align 4
  %24 = getelementptr inbounds nuw %class.FileLine, ptr %5, i32 0, i32 2
  %25 = load ptr, ptr %4, align 8, !tbaa !100
  %26 = getelementptr inbounds nuw %class.FileLine, ptr %25, i32 0, i32 2
  %27 = load i32, ptr %26, align 4
  %28 = lshr i32 %27, 1
  %29 = load i32, ptr %24, align 4
  %30 = and i32 %28, 2147483647
  %31 = shl i32 %30, 1
  %32 = and i32 %29, 1
  %33 = or i32 %32, %31
  store i32 %33, ptr %24, align 4
  %34 = getelementptr inbounds nuw %class.FileLine, ptr %5, i32 0, i32 3
  %35 = load ptr, ptr %4, align 8, !tbaa !100
  %36 = getelementptr inbounds nuw %class.FileLine, ptr %35, i32 0, i32 3
  %37 = load i32, ptr %36, align 8, !tbaa !189
  store i32 %37, ptr %34, align 8, !tbaa !189
  %38 = getelementptr inbounds nuw %class.FileLine, ptr %5, i32 0, i32 4
  %39 = load ptr, ptr %4, align 8, !tbaa !100
  %40 = getelementptr inbounds nuw %class.FileLine, ptr %39, i32 0, i32 4
  %41 = load i32, ptr %40, align 4, !tbaa !190
  store i32 %41, ptr %38, align 4, !tbaa !190
  %42 = getelementptr inbounds nuw %class.FileLine, ptr %5, i32 0, i32 5
  %43 = load ptr, ptr %4, align 8, !tbaa !100
  %44 = getelementptr inbounds nuw %class.FileLine, ptr %43, i32 0, i32 5
  %45 = load i32, ptr %44, align 8, !tbaa !191
  store i32 %45, ptr %42, align 8, !tbaa !191
  %46 = getelementptr inbounds nuw %class.FileLine, ptr %5, i32 0, i32 6
  %47 = load ptr, ptr %4, align 8, !tbaa !100
  %48 = getelementptr inbounds nuw %class.FileLine, ptr %47, i32 0, i32 6
  %49 = load i32, ptr %48, align 4, !tbaa !192
  store i32 %49, ptr %46, align 4, !tbaa !192
  %50 = getelementptr inbounds nuw %class.FileLine, ptr %5, i32 0, i32 7
  %51 = load ptr, ptr %4, align 8, !tbaa !100
  %52 = getelementptr inbounds nuw %class.FileLine, ptr %51, i32 0, i32 7
  %53 = load ptr, ptr %52, align 8, !tbaa !193
  store ptr %53, ptr %50, align 8, !tbaa !193
  %54 = getelementptr inbounds nuw %class.FileLine, ptr %5, i32 0, i32 8
  %55 = load ptr, ptr %4, align 8, !tbaa !100
  %56 = getelementptr inbounds nuw %class.FileLine, ptr %55, i32 0, i32 8
  %57 = load ptr, ptr %56, align 8, !tbaa !194
  store ptr %57, ptr %54, align 8, !tbaa !194
  %58 = getelementptr inbounds nuw %class.FileLine, ptr %5, i32 0, i32 7
  %59 = load ptr, ptr %58, align 8, !tbaa !193
  %60 = icmp ne ptr %59, null
  br i1 %60, label %61, label %64

61:                                               ; preds = %2
  %62 = getelementptr inbounds nuw %class.FileLine, ptr %5, i32 0, i32 7
  %63 = load ptr, ptr %62, align 8, !tbaa !193
  call void @_ZN12VFileContent6refIncEv(ptr noundef nonnull align 8 dereferenceable(96) %63)
  br label %64

64:                                               ; preds = %61, %2
  ret void
}

; Function Attrs: mustprogress uwtable
define linkonce_odr dso_local void @_ZNSt15__new_allocatorI8FileLineE9constructIS0_JRKS0_EEEvPT_DpOT0_(ptr noundef nonnull align 1 dereferenceable(1) %0, ptr noundef %1, ptr noundef nonnull align 8 dereferenceable(40) %2) #8 comdat align 2 {
  %4 = alloca ptr, align 8
  %5 = alloca ptr, align 8
  %6 = alloca ptr, align 8
  store ptr %0, ptr %4, align 8, !tbaa !957
  store ptr %1, ptr %5, align 8, !tbaa !100
  store ptr %2, ptr %6, align 8, !tbaa !100
  %7 = load ptr, ptr %5, align 8, !tbaa !100
  %8 = load ptr, ptr %6, align 8, !tbaa !100
  call void @_ZN8FileLineC2ERKS_(ptr noundef nonnull align 8 dereferenceable(40) %7, ptr noundef nonnull align 8 dereferenceable(40) %8)
  ret void
}

; Function Attrs: mustprogress uwtable
define linkonce_odr dso_local void @_ZNSt16allocator_traitsISaI8FileLineEE9constructIS0_JRKS0_EEEvRS1_PT_DpOT0_(ptr noundef nonnull align 1 dereferenceable(1) %0, ptr noundef %1, ptr noundef nonnull align 8 dereferenceable(40) %2) #8 comdat align 2 {
  %4 = alloca ptr, align 8
  %5 = alloca ptr, align 8
  %6 = alloca ptr, align 8
  store ptr %0, ptr %4, align 8, !tbaa !959
  store ptr %1, ptr %5, align 8, !tbaa !100
  store ptr %2, ptr %6, align 8, !tbaa !100
  %7 = load ptr, ptr %4, align 8, !tbaa !959
  %8 = load ptr, ptr %5, align 8, !tbaa !100
  %9 = load ptr, ptr %6, align 8, !tbaa !100
  call void @_ZNSt15__new_allocatorI8FileLineE9constructIS0_JRKS0_EEEvPT_DpOT0_(ptr noundef nonnull align 1 dereferenceable(1) %7, ptr noundef %8, ptr noundef nonnull align 8 dereferenceable(40) %9)
  ret void
}

; Function Attrs: mustprogress uwtable
define linkonce_odr dso_local void @_ZNSt5dequeI8FileLineSaIS0_EE9push_backERKS0_(ptr noundef nonnull align 8 dereferenceable(80) %0, ptr noundef nonnull align 8 dereferenceable(40) %1) #8 comdat align 2 {
  %3 = alloca ptr, align 8
  %4 = alloca ptr, align 8
  store ptr %0, ptr %3, align 8, !tbaa !96
  store ptr %1, ptr %4, align 8, !tbaa !100
  %5 = load ptr, ptr %3, align 8
  %6 = getelementptr inbounds nuw %"class.std::_Deque_base.14", ptr %5, i32 0, i32 0
  %7 = getelementptr inbounds nuw %"struct.std::_Deque_base<FileLine, std::allocator<FileLine>>::_Deque_impl_data", ptr %6, i32 0, i32 3
  %8 = getelementptr inbounds nuw %"struct.std::_Deque_iterator.18", ptr %7, i32 0, i32 0
  %9 = load ptr, ptr %8, align 8, !tbaa !214
  %10 = getelementptr inbounds nuw %"class.std::_Deque_base.14", ptr %5, i32 0, i32 0
  %11 = getelementptr inbounds nuw %"struct.std::_Deque_base<FileLine, std::allocator<FileLine>>::_Deque_impl_data", ptr %10, i32 0, i32 3
  %12 = getelementptr inbounds nuw %"struct.std::_Deque_iterator.18", ptr %11, i32 0, i32 2
  %13 = load ptr, ptr %12, align 8, !tbaa !215
  %14 = getelementptr inbounds %class.FileLine, ptr %13, i64 -1
  %15 = icmp ne ptr %9, %14
  br i1 %15, label %16, label %28

16:                                               ; preds = %2
  %17 = getelementptr inbounds nuw %"class.std::_Deque_base.14", ptr %5, i32 0, i32 0
  %18 = getelementptr inbounds nuw %"class.std::_Deque_base.14", ptr %5, i32 0, i32 0
  %19 = getelementptr inbounds nuw %"struct.std::_Deque_base<FileLine, std::allocator<FileLine>>::_Deque_impl_data", ptr %18, i32 0, i32 3
  %20 = getelementptr inbounds nuw %"struct.std::_Deque_iterator.18", ptr %19, i32 0, i32 0
  %21 = load ptr, ptr %20, align 8, !tbaa !214
  %22 = load ptr, ptr %4, align 8, !tbaa !100
  call void @_ZNSt16allocator_traitsISaI8FileLineEE9constructIS0_JRKS0_EEEvRS1_PT_DpOT0_(ptr noundef nonnull align 1 dereferenceable(1) %17, ptr noundef %21, ptr noundef nonnull align 8 dereferenceable(40) %22)
  %23 = getelementptr inbounds nuw %"class.std::_Deque_base.14", ptr %5, i32 0, i32 0
  %24 = getelementptr inbounds nuw %"struct.std::_Deque_base<FileLine, std::allocator<FileLine>>::_Deque_impl_data", ptr %23, i32 0, i32 3
  %25 = getelementptr inbounds nuw %"struct.std::_Deque_iterator.18", ptr %24, i32 0, i32 0
  %26 = load ptr, ptr %25, align 8, !tbaa !214
  %27 = getelementptr inbounds nuw %class.FileLine, ptr %26, i32 1
  store ptr %27, ptr %25, align 8, !tbaa !214
  br label %30

28:                                               ; preds = %2
  %29 = load ptr, ptr %4, align 8, !tbaa !100
  call void @_ZNSt5dequeI8FileLineSaIS0_EE16_M_push_back_auxIJRKS0_EEEvDpOT_(ptr noundef nonnull align 8 dereferenceable(80) %5, ptr noundef nonnull align 8 dereferenceable(40) %29)
  br label %30

30:                                               ; preds = %28, %16
  ret void
}

; Function Attrs: mustprogress uwtable
define dso_local void @_ZN10V3ParseImp23lexVerilatorCmtLintSaveEPK8FileLine(ptr noundef nonnull align 8 dereferenceable(528) %0, ptr noundef %1) #8 align 2 {
  %3 = alloca ptr, align 8
  %4 = alloca ptr, align 8
  store ptr %0, ptr %3, align 8, !tbaa !4
  store ptr %1, ptr %4, align 8, !tbaa !100
  %5 = load ptr, ptr %3, align 8
  %6 = getelementptr inbounds nuw %class.V3ParseImp, ptr %5, i32 0, i32 19
  %7 = load ptr, ptr %4, align 8, !tbaa !100
  call void @_ZNSt5dequeI8FileLineSaIS0_EE9push_backERKS0_(ptr noundef nonnull align 8 dereferenceable(80) %6, ptr noundef nonnull align 8 dereferenceable(40) %7)
  ret void
}