; Function Attrs: mustprogress uwtable
define dso_local void @_ZN10V3ParseImp23lexVerilatorCmtLintSaveEPK8FileLine(ptr noundef nonnull align 8 dereferenceable(528) %0, ptr noundef %1) #8 align 2 {
  %3 = getelementptr inbounds nuw i8, ptr %0, i64 392
  %4 = load ptr, ptr %3, align 8, !tbaa !286
  %5 = getelementptr inbounds nuw i8, ptr %0, i64 408
  %6 = load ptr, ptr %5, align 8, !tbaa !287
  %7 = getelementptr inbounds i8, ptr %6, i64 -40
  %.not.i = icmp eq ptr %4, %7
  br i1 %.not.i, label %46, label %8

8:                                                ; preds = %2
  %9 = load i16, ptr %1, align 8, !tbaa !274
  store i16 %9, ptr %4, align 8, !tbaa !274
  %10 = getelementptr inbounds nuw i8, ptr %4, i64 2
  %11 = getelementptr inbounds nuw i8, ptr %1, i64 2
  %12 = load i16, ptr %11, align 2, !tbaa !231
  store i16 %12, ptr %10, align 2, !tbaa !231
  %13 = getelementptr inbounds nuw i8, ptr %4, i64 4
  %14 = getelementptr inbounds nuw i8, ptr %1, i64 4
  %15 = load i32, ptr %14, align 4
  %16 = and i32 %15, 1
  %17 = load i32, ptr %13, align 4
  %18 = and i32 %17, -2
  %19 = or disjoint i32 %18, %16
  store i32 %19, ptr %13, align 4
  %20 = load i32, ptr %14, align 4
  %21 = and i32 %20, -2
  %22 = or disjoint i32 %21, %16
  store i32 %22, ptr %13, align 4
  %23 = getelementptr inbounds nuw i8, ptr %4, i64 8
  %24 = getelementptr inbounds nuw i8, ptr %1, i64 8
  %25 = load i32, ptr %24, align 8, !tbaa !275
  store i32 %25, ptr %23, align 8, !tbaa !275
  %26 = getelementptr inbounds nuw i8, ptr %4, i64 12
  %27 = getelementptr inbounds nuw i8, ptr %1, i64 12
  %28 = load i32, ptr %27, align 4, !tbaa !276
  store i32 %28, ptr %26, align 4, !tbaa !276
  %29 = getelementptr inbounds nuw i8, ptr %4, i64 16
  %30 = getelementptr inbounds nuw i8, ptr %1, i64 16
  %31 = load i32, ptr %30, align 8, !tbaa !277
  store i32 %31, ptr %29, align 8, !tbaa !277
  %32 = getelementptr inbounds nuw i8, ptr %4, i64 20
  %33 = getelementptr inbounds nuw i8, ptr %1, i64 20
  %34 = load i32, ptr %33, align 4, !tbaa !278
  store i32 %34, ptr %32, align 4, !tbaa !278
  %35 = getelementptr inbounds nuw i8, ptr %4, i64 24
  %36 = getelementptr inbounds nuw i8, ptr %1, i64 24
  %37 = load ptr, ptr %36, align 8, !tbaa !279
  store ptr %37, ptr %35, align 8, !tbaa !279
  %38 = getelementptr inbounds nuw i8, ptr %4, i64 32
  %39 = getelementptr inbounds nuw i8, ptr %1, i64 32
  %40 = load ptr, ptr %39, align 8, !tbaa !280
  store ptr %40, ptr %38, align 8, !tbaa !280
  %.not.i.i.i.i = icmp eq ptr %37, null
  br i1 %.not.i.i.i.i, label %_ZNSt16allocator_traitsISaI8FileLineEE9constructIS0_JRKS0_EEEvRS1_PT_DpOT0_.exit.i, label %41

41:                                               ; preds = %8
  %42 = getelementptr inbounds nuw i8, ptr %37, i64 8
  %43 = atomicrmw add ptr %42, i64 1 seq_cst, align 8
  br label %_ZNSt16allocator_traitsISaI8FileLineEE9constructIS0_JRKS0_EEEvRS1_PT_DpOT0_.exit.i

_ZNSt16allocator_traitsISaI8FileLineEE9constructIS0_JRKS0_EEEvRS1_PT_DpOT0_.exit.i: ; preds = %41, %8
  %44 = load ptr, ptr %3, align 8, !tbaa !286
  %45 = getelementptr inbounds nuw i8, ptr %44, i64 40
  store ptr %45, ptr %3, align 8, !tbaa !286
  br label %_ZNSt5dequeI8FileLineSaIS0_EE9push_backERKS0_.exit

46:                                               ; preds = %2
  %47 = getelementptr inbounds nuw i8, ptr %0, i64 344
  tail call void @_ZNSt5dequeI8FileLineSaIS0_EE16_M_push_back_auxIJRKS0_EEEvDpOT_(ptr noundef nonnull align 8 dereferenceable(80) %47, ptr noundef nonnull align 8 dereferenceable(40) %1)
  br label %_ZNSt5dequeI8FileLineSaIS0_EE9push_backERKS0_.exit

_ZNSt5dequeI8FileLineSaIS0_EE9push_backERKS0_.exit: ; preds = %_ZNSt16allocator_traitsISaI8FileLineEE9constructIS0_JRKS0_EEEvRS1_PT_DpOT0_.exit.i, %46
  ret void
}